target datalayout = "e-m:e-p270:32:32-p271:32:32-p272:64:64-i64:64-i128:128-f80:128-n8:16:32:64-S128"
target triple = "x86_64-pc-linux-gnu"

%struct.timeval = type { i64, i64 }

@saved_timeval_set = internal global i8 0, align 1
@formatted_log_time = internal global [128 x i8] zeroinitializer, align 16
@saved_timeval = internal global %struct.timeval zeroinitializer, align 8
@.str.18 = private unnamed_addr constant [25 x i8] c"%Y-%m-%d %H:%M:%S     %Z\00", align 1
@log_timezone = external global ptr, align 8
@.str.19 = private unnamed_addr constant [6 x i8] c".%03d\00", align 1

; Function Attrs: nounwind uwtable
define dso_local ptr @get_formatted_log_time() #0 {
  %1 = alloca ptr, align 8
  %2 = alloca i64, align 8
  %3 = alloca [13 x i8], align 1
  %4 = alloca i32, align 4
  call void @llvm.lifetime.start.p0(i64 8, ptr %2) #16
  call void @llvm.lifetime.start.p0(i64 13, ptr %3) #16
  %5 = load i8, ptr @formatted_log_time, align 16
  %6 = sext i8 %5 to i32
  %7 = icmp ne i32 %6, 0
  br i1 %7, label %8, label %9

8:                                                ; preds = %0
  store ptr @formatted_log_time, ptr %1, align 8
  store i32 1, ptr %4, align 4
  br label %25

9:                                                ; preds = %0
  %10 = load i8, ptr @saved_timeval_set, align 1, !range !4, !noundef !5
  %11 = trunc i8 %10 to i1
  br i1 %11, label %14, label %12

12:                                               ; preds = %9
  %13 = call i32 @gettimeofday(ptr noundef @saved_timeval, ptr noundef null) #16
  store i8 1, ptr @saved_timeval_set, align 1
  br label %14

14:                                               ; preds = %12, %9
  %15 = load i64, ptr @saved_timeval, align 8
  store i64 %15, ptr %2, align 8
  %16 = load ptr, ptr @log_timezone, align 8
  %17 = call ptr @pg_localtime(ptr noundef %2, ptr noundef %16)
  %18 = call i64 @pg_strftime(ptr noundef @formatted_log_time, i64 noundef 128, ptr noundef @.str.18, ptr noundef %17)
  %19 = getelementptr inbounds [13 x i8], ptr %3, i64 0, i64 0
  %20 = load i64, ptr getelementptr inbounds nuw (%struct.timeval, ptr @saved_timeval, i32 0, i32 1), align 8
  %21 = sdiv i64 %20, 1000
  %22 = trunc i64 %21 to i32
  %23 = call i32 (ptr, ptr, ...) @pg_sprintf(ptr noundef %19, ptr noundef @.str.19, i32 noundef %22)
  %24 = getelementptr inbounds [13 x i8], ptr %3, i64 0, i64 0
  call void @llvm.memcpy.p0.p0.i64(ptr align 1 getelementptr inbounds (i8, ptr @formatted_log_time, i64 19), ptr align 1 %24, i64 4, i1 false)
  store ptr @formatted_log_time, ptr %1, align 8
  store i32 1, ptr %4, align 4
  br label %25

25:                                               ; preds = %14, %8
  call void @llvm.lifetime.end.p0(i64 13, ptr %3) #16
  call void @llvm.lifetime.end.p0(i64 8, ptr %2) #16
  %26 = load ptr, ptr %1, align 8
  ret ptr %26
}