; Function Attrs: nounwind uwtable
define dso_local noundef nonnull ptr @get_formatted_log_time() local_unnamed_addr #3 {
  %1 = alloca i64, align 8
  %2 = alloca [13 x i8], align 4
  call void @llvm.lifetime.start.p0(i64 8, ptr nonnull %1) #32
  call void @llvm.lifetime.start.p0(i64 13, ptr nonnull %2) #32
  %3 = load i8, ptr @formatted_log_time, align 16
  %.not = icmp eq i8 %3, 0
  br i1 %.not, label %4, label %17

4:                                                ; preds = %0
  %.b1 = load i1, ptr @saved_timeval_set, align 1
  br i1 %.b1, label %7, label %5

5:                                                ; preds = %4
  %6 = tail call i32 @gettimeofday(ptr noundef nonnull @saved_timeval, ptr noundef null) #32
  store i1 true, ptr @saved_timeval_set, align 1
  br label %7

7:                                                ; preds = %5, %4
  %8 = load i64, ptr @saved_timeval, align 8
  store i64 %8, ptr %1, align 8
  %9 = load ptr, ptr @log_timezone, align 8
  %10 = call ptr @pg_localtime(ptr noundef nonnull %1, ptr noundef %9) #32
  %11 = call i64 @pg_strftime(ptr noundef nonnull @formatted_log_time, i64 noundef 128, ptr noundef nonnull @.str.18, ptr noundef %10) #32
  %12 = load i64, ptr getelementptr inbounds nuw (i8, ptr @saved_timeval, i64 8), align 8
  %13 = sdiv i64 %12, 1000
  %14 = trunc i64 %13 to i32
  %15 = call i32 (ptr, ptr, ...) @pg_sprintf(ptr noundef nonnull %2, ptr noundef nonnull @.str.19, i32 noundef %14) #32
  %16 = load i32, ptr %2, align 4
  store i32 %16, ptr getelementptr inbounds nuw (i8, ptr @formatted_log_time, i64 19), align 1
  br label %17

17:                                               ; preds = %0, %7
  call void @llvm.lifetime.end.p0(i64 13, ptr nonnull %2) #32
  call void @llvm.lifetime.end.p0(i64 8, ptr nonnull %1) #32
  ret ptr @formatted_log_time
}